; ModuleID = '35/1574.c'
source_filename = "35/1574.c"
target datalayout = "e-m:e-p270:32:32-p271:32:32-p272:64:64-i64:64-f80:128-n8:16:32:64-S128"
target triple = "x86_64-pc-linux-gnu"

@.str = private unnamed_addr constant [7 x i8] c"%d%c%d\00", align 1
@.str.1 = private unnamed_addr constant [3 x i8] c"%d\00", align 1
@.str.2 = private unnamed_addr constant [7 x i8] c"%d+%d\0A\00", align 1
@.str.3 = private unnamed_addr constant [4 x i8] c"No\0A\00", align 1

; Function Attrs: noinline nounwind uwtable
define dso_local void @main() #0 {
  %1 = alloca i32, align 4
  %2 = alloca i32, align 4
  %3 = alloca i32, align 4
  %4 = alloca i32, align 4
  %5 = alloca i32, align 4
  %6 = alloca [9 x [9 x i32]], align 16
  %7 = alloca i32, align 4
  %8 = alloca i32, align 4
  %9 = alloca i32, align 4
  %10 = alloca i32, align 4
  %11 = alloca i32, align 4
  %12 = alloca i32, align 4
  %13 = alloca i32, align 4
  %14 = alloca i8, align 1
  store i32 0, i32* %13, align 4
  %15 = call i32 (i8*, ...) @__isoc99_scanf(i8* getelementptr inbounds ([7 x i8], [7 x i8]* @.str, i64 0, i64 0), i32* %1, i8* %14, i32* %2)
  store i32 0, i32* %3, align 4
  br label %16

16:                                               ; preds = %37, %0
  %17 = load i32, i32* %3, align 4
  %18 = load i32, i32* %1, align 4
  %19 = icmp slt i32 %17, %18
  br i1 %19, label %20, label %40

20:                                               ; preds = %16
  store i32 0, i32* %4, align 4
  br label %21

21:                                               ; preds = %33, %20
  %22 = load i32, i32* %4, align 4
  %23 = load i32, i32* %2, align 4
  %24 = icmp slt i32 %22, %23
  br i1 %24, label %25, label %36

25:                                               ; preds = %21
  %26 = load i32, i32* %3, align 4
  %27 = sext i32 %26 to i64
  %28 = getelementptr inbounds [9 x [9 x i32]], [9 x [9 x i32]]* %6, i64 0, i64 %27
  %29 = load i32, i32* %4, align 4
  %30 = sext i32 %29 to i64
  %31 = getelementptr inbounds [9 x i32], [9 x i32]* %28, i64 0, i64 %30
  %32 = call i32 (i8*, ...) @__isoc99_scanf(i8* getelementptr inbounds ([3 x i8], [3 x i8]* @.str.1, i64 0, i64 0), i32* %31)
  br label %33

33:                                               ; preds = %25
  %34 = load i32, i32* %4, align 4
  %35 = add nsw i32 %34, 1
  store i32 %35, i32* %4, align 4
  br label %21

36:                                               ; preds = %21
  br label %37

37:                                               ; preds = %36
  %38 = load i32, i32* %3, align 4
  %39 = add nsw i32 %38, 1
  store i32 %39, i32* %3, align 4
  br label %16

40:                                               ; preds = %16
  store i32 0, i32* %3, align 4
  br label %41

41:                                               ; preds = %125, %40
  %42 = load i32, i32* %3, align 4
  %43 = load i32, i32* %1, align 4
  %44 = icmp slt i32 %42, %43
  br i1 %44, label %45, label %128

45:                                               ; preds = %41
  %46 = load i32, i32* %3, align 4
  %47 = sext i32 %46 to i64
  %48 = getelementptr inbounds [9 x [9 x i32]], [9 x [9 x i32]]* %6, i64 0, i64 %47
  %49 = getelementptr inbounds [9 x i32], [9 x i32]* %48, i64 0, i64 0
  %50 = load i32, i32* %49, align 4
  store i32 %50, i32* %11, align 4
  store i32 0, i32* %8, align 4
  store i32 0, i32* %4, align 4
  br label %51

51:                                               ; preds = %76, %45
  %52 = load i32, i32* %4, align 4
  %53 = load i32, i32* %2, align 4
  %54 = icmp slt i32 %52, %53
  br i1 %54, label %55, label %79

55:                                               ; preds = %51
  %56 = load i32, i32* %3, align 4
  %57 = sext i32 %56 to i64
  %58 = getelementptr inbounds [9 x [9 x i32]], [9 x [9 x i32]]* %6, i64 0, i64 %57
  %59 = load i32, i32* %4, align 4
  %60 = sext i32 %59 to i64
  %61 = getelementptr inbounds [9 x i32], [9 x i32]* %58, i64 0, i64 %60
  %62 = load i32, i32* %61, align 4
  %63 = load i32, i32* %11, align 4
  %64 = icmp sgt i32 %62, %63
  br i1 %64, label %65, label %75

65:                                               ; preds = %55
  %66 = load i32, i32* %3, align 4
  %67 = sext i32 %66 to i64
  %68 = getelementptr inbounds [9 x [9 x i32]], [9 x [9 x i32]]* %6, i64 0, i64 %67
  %69 = load i32, i32* %4, align 4
  %70 = sext i32 %69 to i64
  %71 = getelementptr inbounds [9 x i32], [9 x i32]* %68, i64 0, i64 %70
  %72 = load i32, i32* %71, align 4
  store i32 %72, i32* %11, align 4
  %73 = load i32, i32* %4, align 4
  store i32 %73, i32* %9, align 4
  %74 = load i32, i32* %9, align 4
  store i32 %74, i32* %8, align 4
  br label %75

75:                                               ; preds = %65, %55
  br label %76

76:                                               ; preds = %75
  %77 = load i32, i32* %4, align 4
  %78 = add nsw i32 %77, 1
  store i32 %78, i32* %4, align 4
  br label %51

79:                                               ; preds = %51
  %80 = load i32, i32* %3, align 4
  %81 = sext i32 %80 to i64
  %82 = getelementptr inbounds [9 x [9 x i32]], [9 x [9 x i32]]* %6, i64 0, i64 %81
  %83 = load i32, i32* %8, align 4
  %84 = sext i32 %83 to i64
  %85 = getelementptr inbounds [9 x i32], [9 x i32]* %82, i64 0, i64 %84
  %86 = load i32, i32* %85, align 4
  store i32 %86, i32* %12, align 4
  %87 = load i32, i32* %3, align 4
  store i32 %87, i32* %7, align 4
  store i32 0, i32* %5, align 4
  br label %88

88:                                               ; preds = %113, %79
  %89 = load i32, i32* %5, align 4
  %90 = load i32, i32* %1, align 4
  %91 = icmp slt i32 %89, %90
  br i1 %91, label %92, label %116

92:                                               ; preds = %88
  %93 = load i32, i32* %5, align 4
  %94 = sext i32 %93 to i64
  %95 = getelementptr inbounds [9 x [9 x i32]], [9 x [9 x i32]]* %6, i64 0, i64 %94
  %96 = load i32, i32* %8, align 4
  %97 = sext i32 %96 to i64
  %98 = getelementptr inbounds [9 x i32], [9 x i32]* %95, i64 0, i64 %97
  %99 = load i32, i32* %98, align 4
  %100 = load i32, i32* %12, align 4
  %101 = icmp slt i32 %99, %100
  br i1 %101, label %102, label %112

102:                                              ; preds = %92
  %103 = load i32, i32* %5, align 4
  %104 = sext i32 %103 to i64
  %105 = getelementptr inbounds [9 x [9 x i32]], [9 x [9 x i32]]* %6, i64 0, i64 %104
  %106 = load i32, i32* %8, align 4
  %107 = sext i32 %106 to i64
  %108 = getelementptr inbounds [9 x i32], [9 x i32]* %105, i64 0, i64 %107
  %109 = load i32, i32* %108, align 4
  store i32 %109, i32* %12, align 4
  %110 = load i32, i32* %5, align 4
  store i32 %110, i32* %10, align 4
  %111 = load i32, i32* %10, align 4
  store i32 %111, i32* %7, align 4
  br label %112

112:                                              ; preds = %102, %92
  br label %113

113:                                              ; preds = %112
  %114 = load i32, i32* %5, align 4
  %115 = add nsw i32 %114, 1
  store i32 %115, i32* %5, align 4
  br label %88

116:                                              ; preds = %88
  %117 = load i32, i32* %11, align 4
  %118 = load i32, i32* %12, align 4
  %119 = icmp eq i32 %117, %118
  br i1 %119, label %120, label %124

120:                                              ; preds = %116
  store i32 1, i32* %13, align 4
  %121 = load i32, i32* %7, align 4
  %122 = load i32, i32* %8, align 4
  %123 = call i32 (i8*, ...) @printf(i8* getelementptr inbounds ([7 x i8], [7 x i8]* @.str.2, i64 0, i64 0), i32 %121, i32 %122)
  br label %128

124:                                              ; preds = %116
  br label %125

125:                                              ; preds = %124
  %126 = load i32, i32* %3, align 4
  %127 = add nsw i32 %126, 1
  store i32 %127, i32* %3, align 4
  br label %41

128:                                              ; preds = %120, %41
  %129 = load i32, i32* %13, align 4
  %130 = icmp eq i32 %129, 0
  br i1 %130, label %131, label %133

131:                                              ; preds = %128
  %132 = call i32 (i8*, ...) @printf(i8* getelementptr inbounds ([4 x i8], [4 x i8]* @.str.3, i64 0, i64 0))
  br label %133

133:                                              ; preds = %131, %128
  ret void
}

declare dso_local i32 @__isoc99_scanf(i8*, ...) #1

declare dso_local i32 @printf(i8*, ...) #1


!llvm.module.flags = !{!0}
!llvm.ident = !{!1}

!0 = !{i32 1, !"wchar_size", i32 4}
!1 = !{!"clang version 10.0.0-4ubuntu1 "}
